; Function Attrs: mustprogress uwtable
define internal fastcc void @_ZN17grpc_event_engine12experimental12_GLOBAL__N_122AresStatusToAbslStatusEiSt17basic_string_viewIcSt11char_traitsIcEE(ptr dead_on_unwind noalias nonnull writable align 8 %0, i32 noundef %1, i64 %2, ptr %3) unnamed_addr #3 {
  switch i32 %1, label %9 [
    i32 24, label %5
    i32 5, label %6
    i32 4, label %7
    i32 11, label %8
  ]

5:                                                ; preds = %4
  tail call void @_ZN4absl12lts_2024072214CancelledErrorESt17basic_string_viewIcSt11char_traitsIcEE(ptr dead_on_unwind nonnull writable sret(%"class.absl::lts_20240722::Status") align 8 %0, i64 %2, ptr %3)
  br label %10

6:                                                ; preds = %4
  tail call void @_ZN4absl12lts_2024072218UnimplementedErrorESt17basic_string_viewIcSt11char_traitsIcEE(ptr dead_on_unwind nonnull writable sret(%"class.absl::lts_20240722::Status") align 8 %0, i64 %2, ptr %3)
  br label %10

7:                                                ; preds = %4
  tail call void @_ZN4absl12lts_2024072213NotFoundErrorESt17basic_string_viewIcSt11char_traitsIcEE(ptr dead_on_unwind nonnull writable sret(%"class.absl::lts_20240722::Status") align 8 %0, i64 %2, ptr %3)
  br label %10

8:                                                ; preds = %4
  tail call void @_ZN4absl12lts_2024072216UnavailableErrorESt17basic_string_viewIcSt11char_traitsIcEE(ptr dead_on_unwind nonnull writable sret(%"class.absl::lts_20240722::Status") align 8 %0, i64 %2, ptr %3)
  br label %10

9:                                                ; preds = %4
  tail call void @_ZN4absl12lts_2024072212UnknownErrorESt17basic_string_viewIcSt11char_traitsIcEE(ptr dead_on_unwind nonnull writable sret(%"class.absl::lts_20240722::Status") align 8 %0, i64 %2, ptr %3)
  br label %10

10:                                               ; preds = %9, %8, %7, %6, %5
  ret void
}